; ModuleID = '55/1573.c'
source_filename = "55/1573.c"
target datalayout = "e-m:e-p270:32:32-p271:32:32-p272:64:64-i64:64-f80:128-n8:16:32:64-S128"
target triple = "x86_64-pc-linux-gnu"

@.str = private unnamed_addr constant [9 x i8] c"%d %s %d\00", align 1
@.str.1 = private unnamed_addr constant [3 x i8] c"%c\00", align 1

; Function Attrs: noinline nounwind uwtable
define dso_local i32 @main() #0 {
  %1 = alloca i32, align 4
  %2 = alloca i32, align 4
  %3 = alloca i32, align 4
  %4 = alloca i32, align 4
  %5 = alloca i32, align 4
  %6 = alloca i32, align 4
  %7 = alloca i32, align 4
  %8 = alloca i32, align 4
  %9 = alloca i32, align 4
  %10 = alloca [100 x i32], align 16
  %11 = alloca [100 x i32], align 16
  %12 = alloca [100 x i8], align 16
  %13 = alloca [100 x i8], align 16
  store i32 0, i32* %1, align 4
  %14 = getelementptr inbounds [100 x i8], [100 x i8]* %12, i64 0, i64 0
  %15 = call i32 (i8*, ...) @__isoc99_scanf(i8* getelementptr inbounds ([9 x i8], [9 x i8]* @.str, i64 0, i64 0), i32* %2, i8* %14, i32* %4)
  %16 = getelementptr inbounds [100 x i8], [100 x i8]* %12, i64 0, i64 0
  %17 = call i64 @strlen(i8* %16) #3
  %18 = trunc i64 %17 to i32
  store i32 %18, i32* %9, align 4
  store i32 0, i32* %6, align 4
  br label %19

19:                                               ; preds = %100, %0
  %20 = load i32, i32* %6, align 4
  %21 = load i32, i32* %9, align 4
  %22 = icmp slt i32 %20, %21
  br i1 %22, label %23, label %103

23:                                               ; preds = %19
  %24 = load i32, i32* %6, align 4
  %25 = sext i32 %24 to i64
  %26 = getelementptr inbounds [100 x i8], [100 x i8]* %12, i64 0, i64 %25
  %27 = load i8, i8* %26, align 1
  %28 = sext i8 %27 to i32
  %29 = icmp sge i32 %28, 48
  br i1 %29, label %30, label %47

30:                                               ; preds = %23
  %31 = load i32, i32* %6, align 4
  %32 = sext i32 %31 to i64
  %33 = getelementptr inbounds [100 x i8], [100 x i8]* %12, i64 0, i64 %32
  %34 = load i8, i8* %33, align 1
  %35 = sext i8 %34 to i32
  %36 = icmp sle i32 %35, 57
  br i1 %36, label %37, label %47

37:                                               ; preds = %30
  %38 = load i32, i32* %6, align 4
  %39 = sext i32 %38 to i64
  %40 = getelementptr inbounds [100 x i8], [100 x i8]* %12, i64 0, i64 %39
  %41 = load i8, i8* %40, align 1
  %42 = sext i8 %41 to i32
  %43 = sub nsw i32 %42, 48
  %44 = load i32, i32* %6, align 4
  %45 = sext i32 %44 to i64
  %46 = getelementptr inbounds [100 x i32], [100 x i32]* %10, i64 0, i64 %45
  store i32 %43, i32* %46, align 4
  br label %99

47:                                               ; preds = %30, %23
  %48 = load i32, i32* %6, align 4
  %49 = sext i32 %48 to i64
  %50 = getelementptr inbounds [100 x i8], [100 x i8]* %12, i64 0, i64 %49
  %51 = load i8, i8* %50, align 1
  %52 = sext i8 %51 to i32
  %53 = icmp sge i32 %52, 97
  br i1 %53, label %54, label %72

54:                                               ; preds = %47
  %55 = load i32, i32* %6, align 4
  %56 = sext i32 %55 to i64
  %57 = getelementptr inbounds [100 x i8], [100 x i8]* %12, i64 0, i64 %56
  %58 = load i8, i8* %57, align 1
  %59 = sext i8 %58 to i32
  %60 = icmp sle i32 %59, 122
  br i1 %60, label %61, label %72

61:                                               ; preds = %54
  %62 = load i32, i32* %6, align 4
  %63 = sext i32 %62 to i64
  %64 = getelementptr inbounds [100 x i8], [100 x i8]* %12, i64 0, i64 %63
  %65 = load i8, i8* %64, align 1
  %66 = sext i8 %65 to i32
  %67 = sub nsw i32 %66, 97
  %68 = add nsw i32 %67, 10
  %69 = load i32, i32* %6, align 4
  %70 = sext i32 %69 to i64
  %71 = getelementptr inbounds [100 x i32], [100 x i32]* %10, i64 0, i64 %70
  store i32 %68, i32* %71, align 4
  br label %98

72:                                               ; preds = %54, %47
  %73 = load i32, i32* %6, align 4
  %74 = sext i32 %73 to i64
  %75 = getelementptr inbounds [100 x i8], [100 x i8]* %12, i64 0, i64 %74
  %76 = load i8, i8* %75, align 1
  %77 = sext i8 %76 to i32
  %78 = icmp sge i32 %77, 65
  br i1 %78, label %79, label %97

79:                                               ; preds = %72
  %80 = load i32, i32* %6, align 4
  %81 = sext i32 %80 to i64
  %82 = getelementptr inbounds [100 x i8], [100 x i8]* %12, i64 0, i64 %81
  %83 = load i8, i8* %82, align 1
  %84 = sext i8 %83 to i32
  %85 = icmp sle i32 %84, 122
  br i1 %85, label %86, label %97

86:                                               ; preds = %79
  %87 = load i32, i32* %6, align 4
  %88 = sext i32 %87 to i64
  %89 = getelementptr inbounds [100 x i8], [100 x i8]* %12, i64 0, i64 %88
  %90 = load i8, i8* %89, align 1
  %91 = sext i8 %90 to i32
  %92 = sub nsw i32 %91, 65
  %93 = add nsw i32 %92, 10
  %94 = load i32, i32* %6, align 4
  %95 = sext i32 %94 to i64
  %96 = getelementptr inbounds [100 x i32], [100 x i32]* %10, i64 0, i64 %95
  store i32 %93, i32* %96, align 4
  br label %97

97:                                               ; preds = %86, %79, %72
  br label %98

98:                                               ; preds = %97, %61
  br label %99

99:                                               ; preds = %98, %37
  br label %100

100:                                              ; preds = %99
  %101 = load i32, i32* %6, align 4
  %102 = add nsw i32 %101, 1
  store i32 %102, i32* %6, align 4
  br label %19

103:                                              ; preds = %19
  store i32 0, i32* %5, align 4
  store i32 0, i32* %6, align 4
  br label %104

104:                                              ; preds = %117, %103
  %105 = load i32, i32* %6, align 4
  %106 = load i32, i32* %9, align 4
  %107 = icmp slt i32 %105, %106
  br i1 %107, label %108, label %120

108:                                              ; preds = %104
  %109 = load i32, i32* %5, align 4
  %110 = load i32, i32* %2, align 4
  %111 = mul nsw i32 %109, %110
  %112 = load i32, i32* %6, align 4
  %113 = sext i32 %112 to i64
  %114 = getelementptr inbounds [100 x i32], [100 x i32]* %10, i64 0, i64 %113
  %115 = load i32, i32* %114, align 4
  %116 = add nsw i32 %111, %115
  store i32 %116, i32* %5, align 4
  br label %117

117:                                              ; preds = %108
  %118 = load i32, i32* %6, align 4
  %119 = add nsw i32 %118, 1
  store i32 %119, i32* %6, align 4
  br label %104

120:                                              ; preds = %104
  store i32 0, i32* %7, align 4
  %121 = load i32, i32* %5, align 4
  %122 = icmp eq i32 %121, 0
  br i1 %122, label %123, label %129

123:                                              ; preds = %120
  %124 = load i32, i32* %7, align 4
  %125 = sext i32 %124 to i64
  %126 = getelementptr inbounds [100 x i32], [100 x i32]* %11, i64 0, i64 %125
  store i32 0, i32* %126, align 4
  %127 = load i32, i32* %7, align 4
  %128 = add nsw i32 %127, 1
  store i32 %128, i32* %7, align 4
  br label %146

129:                                              ; preds = %120
  br label %130

130:                                              ; preds = %133, %129
  %131 = load i32, i32* %5, align 4
  %132 = icmp sgt i32 %131, 0
  br i1 %132, label %133, label %145

133:                                              ; preds = %130
  %134 = load i32, i32* %5, align 4
  %135 = load i32, i32* %4, align 4
  %136 = srem i32 %134, %135
  %137 = load i32, i32* %7, align 4
  %138 = sext i32 %137 to i64
  %139 = getelementptr inbounds [100 x i32], [100 x i32]* %11, i64 0, i64 %138
  store i32 %136, i32* %139, align 4
  %140 = load i32, i32* %5, align 4
  %141 = load i32, i32* %4, align 4
  %142 = sdiv i32 %140, %141
  store i32 %142, i32* %5, align 4
  %143 = load i32, i32* %7, align 4
  %144 = add nsw i32 %143, 1
  store i32 %144, i32* %7, align 4
  br label %130

145:                                              ; preds = %130
  br label %146

146:                                              ; preds = %145, %123
  store i32 0, i32* %8, align 4
  br label %147

147:                                              ; preds = %179, %146
  %148 = load i32, i32* %8, align 4
  %149 = load i32, i32* %7, align 4
  %150 = icmp slt i32 %148, %149
  br i1 %150, label %151, label %182

151:                                              ; preds = %147
  %152 = load i32, i32* %8, align 4
  %153 = sext i32 %152 to i64
  %154 = getelementptr inbounds [100 x i32], [100 x i32]* %11, i64 0, i64 %153
  %155 = load i32, i32* %154, align 4
  %156 = icmp sgt i32 %155, 9
  br i1 %156, label %157, label %168

157:                                              ; preds = %151
  %158 = load i32, i32* %8, align 4
  %159 = sext i32 %158 to i64
  %160 = getelementptr inbounds [100 x i32], [100 x i32]* %11, i64 0, i64 %159
  %161 = load i32, i32* %160, align 4
  %162 = add nsw i32 65, %161
  %163 = sub nsw i32 %162, 10
  %164 = trunc i32 %163 to i8
  %165 = load i32, i32* %8, align 4
  %166 = sext i32 %165 to i64
  %167 = getelementptr inbounds [100 x i8], [100 x i8]* %13, i64 0, i64 %166
  store i8 %164, i8* %167, align 1
  br label %178

168:                                              ; preds = %151
  %169 = load i32, i32* %8, align 4
  %170 = sext i32 %169 to i64
  %171 = getelementptr inbounds [100 x i32], [100 x i32]* %11, i64 0, i64 %170
  %172 = load i32, i32* %171, align 4
  %173 = add nsw i32 %172, 48
  %174 = trunc i32 %173 to i8
  %175 = load i32, i32* %8, align 4
  %176 = sext i32 %175 to i64
  %177 = getelementptr inbounds [100 x i8], [100 x i8]* %13, i64 0, i64 %176
  store i8 %174, i8* %177, align 1
  br label %178

178:                                              ; preds = %168, %157
  br label %179

179:                                              ; preds = %178
  %180 = load i32, i32* %8, align 4
  %181 = add nsw i32 %180, 1
  store i32 %181, i32* %8, align 4
  br label %147

182:                                              ; preds = %147
  %183 = load i32, i32* %7, align 4
  %184 = sub nsw i32 %183, 1
  store i32 %184, i32* %8, align 4
  br label %185

185:                                              ; preds = %195, %182
  %186 = load i32, i32* %8, align 4
  %187 = icmp sge i32 %186, 0
  br i1 %187, label %188, label %198

188:                                              ; preds = %185
  %189 = load i32, i32* %8, align 4
  %190 = sext i32 %189 to i64
  %191 = getelementptr inbounds [100 x i8], [100 x i8]* %13, i64 0, i64 %190
  %192 = load i8, i8* %191, align 1
  %193 = sext i8 %192 to i32
  %194 = call i32 (i8*, ...) @printf(i8* getelementptr inbounds ([3 x i8], [3 x i8]* @.str.1, i64 0, i64 0), i32 %193)
  br label %195

195:                                              ; preds = %188
  %196 = load i32, i32* %8, align 4
  %197 = add nsw i32 %196, -1
  store i32 %197, i32* %8, align 4
  br label %185

198:                                              ; preds = %185
  ret i32 0
}

declare dso_local i32 @__isoc99_scanf(i8*, ...) #1

; Function Attrs: nounwind readonly
declare dso_local i64 @strlen(i8*) #2

declare dso_local i32 @printf(i8*, ...) #1


!llvm.module.flags = !{!0}
!llvm.ident = !{!1}

!0 = !{i32 1, !"wchar_size", i32 4}
!1 = !{!"clang version 10.0.0-4ubuntu1 "}
